Certificate:
    Data:
        Version: 3 (0x2)
        Serial Number:
            62:57:38:b0:bf:1b:22:0e:c1:66:57:ca:2c:62:ce:82:c3:be:e1:3c
        Signature Algorithm: sha256WithRSAEncryption
        Issuer: C=US, ST=TX, O=FE, CN=OCT
        Validity
            Not Before: Jul  5 19:22:13 2022 GMT
            Not After : Jul  2 19:22:13 2032 GMT
        Subject: C=US, ST=TX, O=FE, CN=OCT
        Subject Public Key Info:
            Public Key Algorithm: rsaEncryption
                RSA Public-Key: (2048 bit)
                Modulus:
                    00:bc:79:05:70:ee:b3:fb:26:7a:f2:99:7c:6a:d0:
                    1e:09:a5:b5:65:a5:45:eb:7d:63:36:66:93:9b:8d:
                    94:1e:c1:a4:96:58:b7:2b:8b:59:6a:c3:d4:1d:18:
                    c8:11:e3:aa:0f:d5:28:ba:ef:36:9c:97:65:47:cd:
                    03:4e:62:2f:d4:b5:00:75:3b:69:ed:a9:43:63:9e:
                    bd:03:2c:bd:f8:3d:22:42:f8:c8:39:30:84:32:10:
                    4f:b1:11:7f:7e:ef:33:93:45:78:36:ff:55:f6:4a:
                    da:f4:f6:b8:6d:ff:93:bf:36:c1:cd:bc:0a:ec:47:
                    e9:61:6c:f9:ef:3c:75:36:c8:51:9d:21:c6:41:85:
                    2d:bd:80:87:90:7b:7f:3d:af:f2:59:94:98:8c:4f:
                    95:76:7f:a1:fd:59:ca:8e:27:24:67:97:32:37:a9:
                    e4:99:53:da:44:9a:09:ef:22:57:a2:e7:71:1e:c7:
                    e6:ec:7f:3b:6f:d6:c3:36:81:a3:a0:f1:b7:f7:10:
                    6a:88:e0:ef:e4:ce:42:ec:da:72:7c:3a:9e:e6:f5:
                    72:a1:b8:04:a3:8d:f6:00:72:0d:00:d5:5e:3c:a0:
                    e9:e4:6f:68:e5:1b:bb:40:ae:7d:5e:80:bb:3b:ad:
                    34:08:ac:b5:fb:3e:0a:cd:24:42:e2:ad:b8:c0:4a:
                    0a:21
                Exponent: 65537 (0x10001)
        X509v3 extensions:
            X509v3 Basic Constraints: 
                CA:FALSE
            Netscape Comment: 
                OpenSSL Generated Certificate
            X509v3 Subject Key Identifier: 
                D7:82:FB:B9:47:95:F3:8E:B0:CE:15:0E:E7:AB:FA:F7:6D:C5:AA:26
            X509v3 Authority Key Identifier: 
                keyid:27:86:2C:93:7D:16:43:0B:03:51:F3:7B:AD:F1:05:6F:7B:EC:01:87

    Signature Algorithm: sha256WithRSAEncryption
         94:04:d4:f7:cc:82:e5:07:7d:9b:69:4e:cd:63:4d:c6:3e:37:
         f7:ea:3b:b3:63:00:c1:30:f7:51:02:50:3b:55:72:dc:f5:ef:
         06:11:a8:bc:e9:cc:31:e5:86:2d:04:9a:32:b7:d1:e6:04:54:
         15:a1:b1:4a:dd:87:25:5c:08:ce:70:73:71:16:16:b6:9c:d2:
         a4:f0:29:aa:96:75:a1:a6:cb:16:ed:d8:ac:80:28:9f:12:74:
         a0:e2:71:bc:e7:93:e8:67:58:2a:8c:20:2c:a0:8c:da:19:57:
         d3:2e:69:2c:e5:4e:fc:29:4a:c7:4d:70:8c:be:b3:59:10:dc:
         61:c9:06:5d:0d:a5:57:c5:e4:f8:2e:f2:3e:cb:97:11:64:26:
         63:67:50:f0:97:45:cc:b7:68:7b:d5:ba:3d:03:93:31:21:e5:
         a3:52:cb:a4:a5:bc:8f:fb:7f:0e:c4:6c:41:76:ec:30:8a:f9:
         00:60:95:0e:15:ae:42:13:a1:63:d6:4b:4d:46:db:85:a4:e5:
         31:59:be:c3:05:6d:6e:e9:65:c9:6e:ab:0b:52:fd:e4:cc:cc:
         20:12:65:f2:cd:af:79:e1:93:75:46:b3:d5:82:9c:2e:3a:e2:
         e4:fc:2a:96:c6:29:05:ff:ae:f6:49:18:2e:b3:81:9a:75:3c:
         6b:a0:d3:84
-----BEGIN CERTIFICATE-----
MIIDczCCAlugAwIBAgIUYlc4sL8bIg7BZlfKLGLOgsO+4TwwDQYJKoZIhvcNAQEL
BQAwNTELMAkGA1UEBhMCVVMxCzAJBgNVBAgMAlRYMQswCQYDVQQKDAJGRTEMMAoG
A1UEAwwDT0NUMB4XDTIyMDcwNTE5MjIxM1oXDTMyMDcwMjE5MjIxM1owNTELMAkG
A1UEBhMCVVMxCzAJBgNVBAgMAlRYMQswCQYDVQQKDAJGRTEMMAoGA1UEAwwDT0NU
MIIBIjANBgkqhkiG9w0BAQEFAAOCAQ8AMIIBCgKCAQEAvHkFcO6z+yZ68pl8atAe
CaW1ZaVF631jNmaTm42UHsGklli3K4tZasPUHRjIEeOqD9Uouu82nJdlR80DTmIv
1LUAdTtp7alDY569Ayy9+D0iQvjIOTCEMhBPsRF/fu8zk0V4Nv9V9kra9Pa4bf+T
vzbBzbwK7EfpYWz57zx1NshRnSHGQYUtvYCHkHt/Pa/yWZSYjE+Vdn+h/VnKjick
Z5cyN6nkmVPaRJoJ7yJXoudxHsfm7H87b9bDNoGjoPG39xBqiODv5M5C7NpyfDqe
5vVyobgEo432AHINANVePKDp5G9o5Ru7QK59XoC7O600CKy1+z4KzSRC4q24wEoK
IQIDAQABo3sweTAJBgNVHRMEAjAAMCwGCWCGSAGG+EIBDQQfFh1PcGVuU1NMIEdl
bmVyYXRlZCBDZXJ0aWZpY2F0ZTAdBgNVHQ4EFgQU14L7uUeV846wzhUO56v6923F
qiYwHwYDVR0jBBgwFoAUJ4Ysk30WQwsDUfN7rfEFb3vsAYcwDQYJKoZIhvcNAQEL
BQADggEBAJQE1PfMguUHfZtpTs1jTcY+N/fqO7NjAMEw91ECUDtVctz17wYRqLzp
zDHlhi0EmjK30eYEVBWhsUrdhyVcCM5wc3EWFrac0qTwKaqWdaGmyxbt2KyAKJ8S
dKDicbznk+hnWCqMICygjNoZV9MuaSzlTvwpSsdNcIy+s1kQ3GHJBl0NpVfF5Pgu
8j7LlxFkJmNnUPCXRcy3aHvVuj0DkzEh5aNSy6SlvI/7fw7EbEF27DCK+QBglQ4V
rkIToWPWS01G24Wk5TFZvsMFbW7pZcluqwtS/eTMzCASZfLNr3nhk3VGs9WCnC46
4uT8KpbGKQX/rvZJGC6zgZp1PGug04Q=
-----END CERTIFICATE-----
-----BEGIN PRIVATE KEY-----
MIIEvgIBADANBgkqhkiG9w0BAQEFAASCBKgwggSkAgEAAoIBAQC8eQVw7rP7Jnry
mXxq0B4JpbVlpUXrfWM2ZpObjZQewaSWWLcri1lqw9QdGMgR46oP1Si67zacl2VH
zQNOYi/UtQB1O2ntqUNjnr0DLL34PSJC+Mg5MIQyEE+xEX9+7zOTRXg2/1X2Str0
9rht/5O/NsHNvArsR+lhbPnvPHU2yFGdIcZBhS29gIeQe389r/JZlJiMT5V2f6H9
WcqOJyRnlzI3qeSZU9pEmgnvIlei53Eex+bsfztv1sM2gaOg8bf3EGqI4O/kzkLs
2nJ8Op7m9XKhuASjjfYAcg0A1V48oOnkb2jlG7tArn1egLs7rTQIrLX7PgrNJELi
rbjASgohAgMBAAECggEAW1PVdCTnJ+M8noQLiwKwG4KlxMxydis7QSgxjKXtSX4S
EByLHdmXiam9BiB1Cl4kkSl8ZCD4eKbQGBva50ei39KZlzUkHlrv4b0Q4BH1N+3/
xS4ib7v3wv6ubyIIguzMNCfsmdHeyMr7EMrhEcRPxs902AmvzVEHYQNalTfZoKJa
AyDL5aRsO0Z2fBuV/9kLobz9EvVvRO+R/ZTzoqu3JxiaLMeuQn51krxftoB9pOgM
z9+mxeNXVSxJbx6k4+vR8wgosKJat5my97Wv7XipbQ+SxWCo25P98oaWzHA4IWP+
S6vJRs67Q+4xoiOBGY0y+2IArZ1NpgJ8s3qQ1luOdQKBgQDk1MUmGsjD2Ibs34UR
m/1jcZSkInlKCF2U9u1lQBhlO96qqOvI6D4bLLyLJ21NmdVviFZgdS/IEiyycXQV
Xzqg6+3LUkVDTj0bMCRignr6szdYRvqO7iiN+zF5706H0p7bVSEQpetkj4NEtS76
e2aBWWDPYhftti8+zLw9A83mjwKBgQDS2ZL1PfEP/Xm7LGEV12zVOdkwm2CRG72Z
xc4gzcKy3OJVMjN2iDukRaEQk4Rpq6SwuerI7zpiibjQCO+RYUDEv2xmgRwHskUi
Jb5YHTaT0N8t8Y/bCUAFsZawmLJvowIE45freuoPdTSwT7OjanZNn+pywOxN9lkv
279KqxPcTwKBgD0yphMdwKmX4+W/lX/zHt4UhzMqQRPKjvSC4VRdwuh4DYHIsV5G
ti1gVoBEqBfD12//n1ImpQO10JxceTYqBKz6y9q/guSQLQlzY5ew26Dmgxupx+Kn
0NK/5ih9Fpx+eJuh9bjVFtILC4k5h3nXvL9FHv33dvzM52+9I26R8OQDAoGBAJ2T
QMLLAecjVeBOMFg0YP+RdgFffXG0u6O6MmxNmd42OWfWVqOU+I2yA8bxmBmozzHM
H+z+7DFMH7RJmVCaz965+Hc6sgoGbqgwcOpFGs6pYMFjMFFPvmsC500fMOtBdXbV
6GlxuI7I1xGU3vmXzMYCZyJPj8pL+ydLINDavcL9AoGBALp1Wfx3VT9aoOQpvAlt
/0k3SGi7JQozGarw/ehGXz5vOhp6N5i1Cyn3XwLY2RA0aUEg1vJbhH6YF1Lr7GB1
gAwyXyi6QT3iEb4wiIKU0i5gIPhpqXOY6AwS1AhCt7PcPt41Mq2JzBAUp+U0V/NV
0Q601A3HvwsDDyLEeU+W6N0r
-----END PRIVATE KEY-----
